target datalayout = "e-m:e-p270:32:32-p271:32:32-p272:64:64-i64:64-i128:128-f80:128-n8:16:32:64-S128"
target triple = "x86_64-pc-linux-gnu"

%struct.slurm_step_id_msg = type { i64, i32, i32, i32 }
%struct.stepd_step_rec_t = type { ptr, ptr, i32, %union.pthread_cond_t, %union.pthread_mutex_t, %struct.slurm_step_id_msg, i32, i32, i32, i32, i32, i32, ptr, ptr, i32, i32, ptr, i32, i32, i32, i32, i32, ptr, ptr, ptr, ptr, i32, i32, i64, i64, i16, i32, ptr, ptr, ptr, i32, ptr, i32, ptr, i32, ptr, i16, i32, i32, i32, ptr, i32, ptr, ptr, ptr, ptr, i32, i32, ptr, ptr, i8, i8, i8, i64, i32, ptr, ptr, ptr, ptr, ptr, ptr, ptr, ptr, ptr, ptr, i32, i32, ptr, i8, %union.pthread_cond_t, %union.pthread_mutex_t, i64, ptr, i32, i32, i32, ptr, i64, ptr, ptr, i8, ptr, i16, ptr, ptr, ptr, ptr, ptr, ptr, i64, ptr, i64, ptr, i16, i8, i16, i32, ptr, i16, ptr, ptr, i16, ptr, ptr, ptr, i8 }
%union.pthread_cond_t = type { %struct.__pthread_cond_s }
%struct.__pthread_cond_s = type { %union.__atomic_wide_counter, %union.__atomic_wide_counter, [2 x i32], [2 x i32], i32, i32, [2 x i32] }
%union.__atomic_wide_counter = type { i64 }
%union.pthread_mutex_t = type { %struct.__pthread_mutex_s }
%struct.__pthread_mutex_s = type { i32, i32, i32, i32, i32, i16, i16, %struct.__pthread_internal_list }
%struct.__pthread_internal_list = type { ptr, ptr }
%struct.slurm_cred_arg_t = type { %struct.slurm_step_id_msg, i32, i32, ptr, i16, ptr, ptr, ptr, i32, ptr, ptr, ptr, ptr, ptr, ptr, ptr, i16, i64, ptr, ptr, ptr, ptr, ptr, i32, i32, ptr, i32, i16, ptr, ptr, ptr, i16, ptr, i64, ptr, ptr, ptr, i16, ptr, ptr, ptr, ptr, i32, ptr, ptr }
%struct.identity_t = type { i32, i32, ptr, ptr, ptr, ptr, i32, ptr, ptr, i8 }

@.str.1 = private unnamed_addr constant [17 x i8] c"slurmstepd_job.c\00", align 1
@__func__._slurm_cred_to_step_rec = private unnamed_addr constant [24 x i8] c"_slurm_cred_to_step_rec\00", align 1

; Function Attrs: nounwind uwtable
define internal void @_slurm_cred_to_step_rec(ptr noundef %0, ptr noundef %1) #0 {
  %3 = alloca ptr, align 8
  %4 = alloca ptr, align 8
  %5 = alloca ptr, align 8
  store ptr %0, ptr %3, align 8
  store ptr %1, ptr %4, align 8
  call void @llvm.lifetime.start.p0(i64 8, ptr %5) #9
  %6 = load ptr, ptr %3, align 8
  %7 = call ptr @slurm_cred_get_args(ptr noundef %6)
  store ptr %7, ptr %5, align 8
  %8 = load ptr, ptr %5, align 8
  %9 = getelementptr inbounds nuw %struct.slurm_cred_arg_t, ptr %8, i32 0, i32 1
  %10 = load i32, ptr %9, align 8
  %11 = load ptr, ptr %4, align 8
  %12 = getelementptr inbounds nuw %struct.stepd_step_rec_t, ptr %11, i32 0, i32 46
  store i32 %10, ptr %12, align 8
  %13 = load ptr, ptr %5, align 8
  %14 = getelementptr inbounds nuw %struct.slurm_cred_arg_t, ptr %13, i32 0, i32 2
  %15 = load i32, ptr %14, align 4
  %16 = load ptr, ptr %4, align 8
  %17 = getelementptr inbounds nuw %struct.stepd_step_rec_t, ptr %16, i32 0, i32 51
  store i32 %15, ptr %17, align 8
  %18 = load ptr, ptr %5, align 8
  %19 = getelementptr inbounds nuw %struct.slurm_cred_arg_t, ptr %18, i32 0, i32 3
  %20 = load ptr, ptr %19, align 8
  %21 = getelementptr inbounds nuw %struct.identity_t, ptr %20, i32 0, i32 2
  %22 = load ptr, ptr %21, align 8
  %23 = call ptr @xstrdup(ptr noundef %22)
  %24 = load ptr, ptr %4, align 8
  %25 = getelementptr inbounds nuw %struct.stepd_step_rec_t, ptr %24, i32 0, i32 47
  store ptr %23, ptr %25, align 8
  %26 = load ptr, ptr %4, align 8
  %27 = getelementptr inbounds nuw %struct.stepd_step_rec_t, ptr %26, i32 0, i32 47
  %28 = load ptr, ptr %27, align 8
  %29 = icmp ne ptr %28, null
  br i1 %29, label %37, label %30

30:                                               ; preds = %2
  %31 = load ptr, ptr %4, align 8
  %32 = getelementptr inbounds nuw %struct.stepd_step_rec_t, ptr %31, i32 0, i32 46
  %33 = load i32, ptr %32, align 8
  %34 = call ptr @uid_to_string_or_null(i32 noundef %33)
  %35 = load ptr, ptr %4, align 8
  %36 = getelementptr inbounds nuw %struct.stepd_step_rec_t, ptr %35, i32 0, i32 47
  store ptr %34, ptr %36, align 8
  br label %37

37:                                               ; preds = %30, %2
  %38 = load ptr, ptr %5, align 8
  %39 = getelementptr inbounds nuw %struct.slurm_cred_arg_t, ptr %38, i32 0, i32 3
  %40 = load ptr, ptr %39, align 8
  %41 = getelementptr inbounds nuw %struct.identity_t, ptr %40, i32 0, i32 3
  %42 = load ptr, ptr %41, align 8
  %43 = call ptr @xstrdup(ptr noundef %42)
  %44 = load ptr, ptr %4, align 8
  %45 = getelementptr inbounds nuw %struct.stepd_step_rec_t, ptr %44, i32 0, i32 48
  store ptr %43, ptr %45, align 8
  %46 = load ptr, ptr %5, align 8
  %47 = getelementptr inbounds nuw %struct.slurm_cred_arg_t, ptr %46, i32 0, i32 3
  %48 = load ptr, ptr %47, align 8
  %49 = getelementptr inbounds nuw %struct.identity_t, ptr %48, i32 0, i32 4
  %50 = load ptr, ptr %49, align 8
  %51 = call ptr @xstrdup(ptr noundef %50)
  %52 = load ptr, ptr %4, align 8
  %53 = getelementptr inbounds nuw %struct.stepd_step_rec_t, ptr %52, i32 0, i32 49
  store ptr %51, ptr %53, align 8
  %54 = load ptr, ptr %5, align 8
  %55 = getelementptr inbounds nuw %struct.slurm_cred_arg_t, ptr %54, i32 0, i32 3
  %56 = load ptr, ptr %55, align 8
  %57 = getelementptr inbounds nuw %struct.identity_t, ptr %56, i32 0, i32 5
  %58 = load ptr, ptr %57, align 8
  %59 = call ptr @xstrdup(ptr noundef %58)
  %60 = load ptr, ptr %4, align 8
  %61 = getelementptr inbounds nuw %struct.stepd_step_rec_t, ptr %60, i32 0, i32 50
  store ptr %59, ptr %61, align 8
  %62 = load ptr, ptr %5, align 8
  %63 = getelementptr inbounds nuw %struct.slurm_cred_arg_t, ptr %62, i32 0, i32 3
  %64 = load ptr, ptr %63, align 8
  %65 = getelementptr inbounds nuw %struct.identity_t, ptr %64, i32 0, i32 6
  %66 = load i32, ptr %65, align 8
  %67 = load ptr, ptr %4, align 8
  %68 = getelementptr inbounds nuw %struct.stepd_step_rec_t, ptr %67, i32 0, i32 52
  store i32 %66, ptr %68, align 4
  %69 = load ptr, ptr %5, align 8
  %70 = getelementptr inbounds nuw %struct.slurm_cred_arg_t, ptr %69, i32 0, i32 3
  %71 = load ptr, ptr %70, align 8
  %72 = getelementptr inbounds nuw %struct.identity_t, ptr %71, i32 0, i32 7
  %73 = load ptr, ptr %72, align 8
  %74 = load ptr, ptr %4, align 8
  %75 = getelementptr inbounds nuw %struct.stepd_step_rec_t, ptr %74, i32 0, i32 54
  store ptr %73, ptr %75, align 8
  %76 = load ptr, ptr %5, align 8
  %77 = getelementptr inbounds nuw %struct.slurm_cred_arg_t, ptr %76, i32 0, i32 3
  %78 = load ptr, ptr %77, align 8
  %79 = getelementptr inbounds nuw %struct.identity_t, ptr %78, i32 0, i32 6
  %80 = load i32, ptr %79, align 8
  %81 = load ptr, ptr %5, align 8
  %82 = getelementptr inbounds nuw %struct.slurm_cred_arg_t, ptr %81, i32 0, i32 3
  %83 = load ptr, ptr %82, align 8
  %84 = getelementptr inbounds nuw %struct.identity_t, ptr %83, i32 0, i32 7
  %85 = load ptr, ptr %84, align 8
  %86 = call ptr @copy_gids(i32 noundef %80, ptr noundef %85)
  %87 = load ptr, ptr %5, align 8
  %88 = getelementptr inbounds nuw %struct.slurm_cred_arg_t, ptr %87, i32 0, i32 3
  %89 = load ptr, ptr %88, align 8
  %90 = getelementptr inbounds nuw %struct.identity_t, ptr %89, i32 0, i32 7
  store ptr %86, ptr %90, align 8
  %91 = load ptr, ptr %5, align 8
  %92 = getelementptr inbounds nuw %struct.slurm_cred_arg_t, ptr %91, i32 0, i32 3
  %93 = load ptr, ptr %92, align 8
  %94 = getelementptr inbounds nuw %struct.identity_t, ptr %93, i32 0, i32 6
  %95 = load i32, ptr %94, align 8
  %96 = load ptr, ptr %5, align 8
  %97 = getelementptr inbounds nuw %struct.slurm_cred_arg_t, ptr %96, i32 0, i32 3
  %98 = load ptr, ptr %97, align 8
  %99 = getelementptr inbounds nuw %struct.identity_t, ptr %98, i32 0, i32 8
  %100 = load ptr, ptr %99, align 8
  %101 = call ptr @copy_gr_names(i32 noundef %95, ptr noundef %100)
  %102 = load ptr, ptr %4, align 8
  %103 = getelementptr inbounds nuw %struct.stepd_step_rec_t, ptr %102, i32 0, i32 53
  store ptr %101, ptr %103, align 8
  %104 = load ptr, ptr %5, align 8
  %105 = getelementptr inbounds nuw %struct.slurm_cred_arg_t, ptr %104, i32 0, i32 17
  %106 = load i64, ptr %105, align 8
  %107 = load ptr, ptr %4, align 8
  %108 = getelementptr inbounds nuw %struct.stepd_step_rec_t, ptr %107, i32 0, i32 94
  store i64 %106, ptr %108, align 8
  %109 = load ptr, ptr %5, align 8
  %110 = getelementptr inbounds nuw %struct.slurm_cred_arg_t, ptr %109, i32 0, i32 20
  %111 = load ptr, ptr %110, align 8
  %112 = call ptr @xstrdup(ptr noundef %111)
  %113 = load ptr, ptr %4, align 8
  %114 = getelementptr inbounds nuw %struct.stepd_step_rec_t, ptr %113, i32 0, i32 95
  store ptr %112, ptr %114, align 8
  %115 = load ptr, ptr %5, align 8
  %116 = getelementptr inbounds nuw %struct.slurm_cred_arg_t, ptr %115, i32 0, i32 33
  %117 = load i64, ptr %116, align 8
  %118 = load ptr, ptr %4, align 8
  %119 = getelementptr inbounds nuw %struct.stepd_step_rec_t, ptr %118, i32 0, i32 96
  store i64 %117, ptr %119, align 8
  %120 = load ptr, ptr %5, align 8
  %121 = getelementptr inbounds nuw %struct.slurm_cred_arg_t, ptr %120, i32 0, i32 32
  %122 = load ptr, ptr %121, align 8
  %123 = call ptr @xstrdup(ptr noundef %122)
  %124 = load ptr, ptr %4, align 8
  %125 = getelementptr inbounds nuw %struct.stepd_step_rec_t, ptr %124, i32 0, i32 108
  store ptr %123, ptr %125, align 8
  %126 = load ptr, ptr %5, align 8
  %127 = getelementptr inbounds nuw %struct.slurm_cred_arg_t, ptr %126, i32 0, i32 25
  %128 = load ptr, ptr %127, align 8
  %129 = icmp ne ptr %128, null
  br i1 %129, label %130, label %149

130:                                              ; preds = %37
  %131 = load ptr, ptr %5, align 8
  %132 = getelementptr inbounds nuw %struct.slurm_cred_arg_t, ptr %131, i32 0, i32 24
  %133 = load i32, ptr %132, align 4
  %134 = zext i32 %133 to i64
  %135 = call ptr @slurm_xcalloc(i64 noundef %134, i64 noundef 128, i1 noundef zeroext true, i1 noundef zeroext false, ptr noundef @.str.1, i32 noundef 245, ptr noundef @__func__._slurm_cred_to_step_rec)
  %136 = load ptr, ptr %4, align 8
  %137 = getelementptr inbounds nuw %struct.stepd_step_rec_t, ptr %136, i32 0, i32 12
  store ptr %135, ptr %137, align 8
  %138 = load ptr, ptr %4, align 8
  %139 = getelementptr inbounds nuw %struct.stepd_step_rec_t, ptr %138, i32 0, i32 12
  %140 = load ptr, ptr %139, align 8
  %141 = load ptr, ptr %5, align 8
  %142 = getelementptr inbounds nuw %struct.slurm_cred_arg_t, ptr %141, i32 0, i32 25
  %143 = load ptr, ptr %142, align 8
  %144 = load ptr, ptr %5, align 8
  %145 = getelementptr inbounds nuw %struct.slurm_cred_arg_t, ptr %144, i32 0, i32 24
  %146 = load i32, ptr %145, align 4
  %147 = zext i32 %146 to i64
  %148 = mul i64 %147, 128
  call void @llvm.memcpy.p0.p0.i64(ptr align 8 %140, ptr align 8 %143, i64 %148, i1 false)
  br label %149

149:                                              ; preds = %130, %37
  %150 = load ptr, ptr %5, align 8
  %151 = getelementptr inbounds nuw %struct.slurm_cred_arg_t, ptr %150, i32 0, i32 12
  %152 = load ptr, ptr %151, align 8
  %153 = call ptr @xstrdup(ptr noundef %152)
  %154 = load ptr, ptr %4, align 8
  %155 = getelementptr inbounds nuw %struct.stepd_step_rec_t, ptr %154, i32 0, i32 0
  store ptr %153, ptr %155, align 8
  %156 = load ptr, ptr %5, align 8
  %157 = getelementptr inbounds nuw %struct.slurm_cred_arg_t, ptr %156, i32 0, i32 19
  %158 = load ptr, ptr %157, align 8
  %159 = call ptr @xstrdup(ptr noundef %158)
  %160 = load ptr, ptr %4, align 8
  %161 = getelementptr inbounds nuw %struct.stepd_step_rec_t, ptr %160, i32 0, i32 13
  store ptr %159, ptr %161, align 8
  %162 = load ptr, ptr %5, align 8
  %163 = getelementptr inbounds nuw %struct.slurm_cred_arg_t, ptr %162, i32 0, i32 44
  %164 = load ptr, ptr %163, align 8
  %165 = icmp ne ptr %164, null
  br i1 %165, label %166, label %172

166:                                              ; preds = %149
  %167 = load ptr, ptr %5, align 8
  %168 = getelementptr inbounds nuw %struct.slurm_cred_arg_t, ptr %167, i32 0, i32 44
  %169 = load ptr, ptr %168, align 8
  %170 = load ptr, ptr %4, align 8
  %171 = getelementptr inbounds nuw %struct.stepd_step_rec_t, ptr %170, i32 0, i32 45
  call void @switch_g_duplicate_stepinfo(ptr noundef %169, ptr noundef %171)
  br label %172

172:                                              ; preds = %166, %149
  %173 = load ptr, ptr %3, align 8
  call void @slurm_cred_unlock_args(ptr noundef %173)
  call void @llvm.lifetime.end.p0(i64 8, ptr %5) #9
  ret void
}