; Function Attrs: nounwind uwtable
define internal fastcc void @_slurm_cred_to_step_rec(ptr noundef %0, ptr noundef initializes((0, 8), (168, 176), (376, 380), (384, 440), (792, 816), (888, 896)) %1) unnamed_addr #0 {
  %3 = tail call ptr @slurm_cred_get_args(ptr noundef %0) #9
  %4 = getelementptr inbounds nuw i8, ptr %3, i64 24
  %5 = load i32, ptr %4, align 8
  %6 = getelementptr inbounds nuw i8, ptr %1, i64 376
  store i32 %5, ptr %6, align 8
  %7 = getelementptr inbounds nuw i8, ptr %3, i64 28
  %8 = load i32, ptr %7, align 4
  %9 = getelementptr inbounds nuw i8, ptr %1, i64 416
  store i32 %8, ptr %9, align 8
  %10 = getelementptr inbounds nuw i8, ptr %3, i64 32
  %11 = load ptr, ptr %10, align 8
  %12 = getelementptr inbounds nuw i8, ptr %11, i64 8
  %13 = load ptr, ptr %12, align 8
  %14 = tail call ptr @xstrdup(ptr noundef %13) #9
  %15 = getelementptr inbounds nuw i8, ptr %1, i64 384
  store ptr %14, ptr %15, align 8
  %.not = icmp eq ptr %14, null
  br i1 %.not, label %16, label %19

16:                                               ; preds = %2
  %17 = load i32, ptr %6, align 8
  %18 = tail call ptr @uid_to_string_or_null(i32 noundef %17) #9
  store ptr %18, ptr %15, align 8
  br label %19

19:                                               ; preds = %16, %2
  %20 = load ptr, ptr %10, align 8
  %21 = getelementptr inbounds nuw i8, ptr %20, i64 16
  %22 = load ptr, ptr %21, align 8
  %23 = tail call ptr @xstrdup(ptr noundef %22) #9
  %24 = getelementptr inbounds nuw i8, ptr %1, i64 392
  store ptr %23, ptr %24, align 8
  %25 = load ptr, ptr %10, align 8
  %26 = getelementptr inbounds nuw i8, ptr %25, i64 24
  %27 = load ptr, ptr %26, align 8
  %28 = tail call ptr @xstrdup(ptr noundef %27) #9
  %29 = getelementptr inbounds nuw i8, ptr %1, i64 400
  store ptr %28, ptr %29, align 8
  %30 = load ptr, ptr %10, align 8
  %31 = getelementptr inbounds nuw i8, ptr %30, i64 32
  %32 = load ptr, ptr %31, align 8
  %33 = tail call ptr @xstrdup(ptr noundef %32) #9
  %34 = getelementptr inbounds nuw i8, ptr %1, i64 408
  store ptr %33, ptr %34, align 8
  %35 = load ptr, ptr %10, align 8
  %36 = getelementptr inbounds nuw i8, ptr %35, i64 40
  %37 = load i32, ptr %36, align 8
  %38 = getelementptr inbounds nuw i8, ptr %1, i64 420
  store i32 %37, ptr %38, align 4
  %39 = load ptr, ptr %10, align 8
  %40 = getelementptr inbounds nuw i8, ptr %39, i64 48
  %41 = load ptr, ptr %40, align 8
  %42 = getelementptr inbounds nuw i8, ptr %1, i64 432
  store ptr %41, ptr %42, align 8
  %43 = load ptr, ptr %10, align 8
  %44 = getelementptr inbounds nuw i8, ptr %43, i64 40
  %45 = load i32, ptr %44, align 8
  %46 = getelementptr inbounds nuw i8, ptr %43, i64 48
  %47 = load ptr, ptr %46, align 8
  %48 = tail call ptr @copy_gids(i32 noundef %45, ptr noundef %47) #9
  %49 = load ptr, ptr %10, align 8
  %50 = getelementptr inbounds nuw i8, ptr %49, i64 48
  store ptr %48, ptr %50, align 8
  %51 = load ptr, ptr %10, align 8
  %52 = getelementptr inbounds nuw i8, ptr %51, i64 40
  %53 = load i32, ptr %52, align 8
  %54 = getelementptr inbounds nuw i8, ptr %51, i64 56
  %55 = load ptr, ptr %54, align 8
  %56 = tail call ptr @copy_gr_names(i32 noundef %53, ptr noundef %55) #9
  %57 = getelementptr inbounds nuw i8, ptr %1, i64 424
  store ptr %56, ptr %57, align 8
  %58 = getelementptr inbounds nuw i8, ptr %3, i64 144
  %59 = load i64, ptr %58, align 8
  %60 = getelementptr inbounds nuw i8, ptr %1, i64 792
  store i64 %59, ptr %60, align 8
  %61 = getelementptr inbounds nuw i8, ptr %3, i64 168
  %62 = load ptr, ptr %61, align 8
  %63 = tail call ptr @xstrdup(ptr noundef %62) #9
  %64 = getelementptr inbounds nuw i8, ptr %1, i64 800
  store ptr %63, ptr %64, align 8
  %65 = getelementptr inbounds nuw i8, ptr %3, i64 256
  %66 = load i64, ptr %65, align 8
  %67 = getelementptr inbounds nuw i8, ptr %1, i64 808
  store i64 %66, ptr %67, align 8
  %68 = getelementptr inbounds nuw i8, ptr %3, i64 248
  %69 = load ptr, ptr %68, align 8
  %70 = tail call ptr @xstrdup(ptr noundef %69) #9
  %71 = getelementptr inbounds nuw i8, ptr %1, i64 888
  store ptr %70, ptr %71, align 8
  %72 = getelementptr inbounds nuw i8, ptr %3, i64 200
  %73 = load ptr, ptr %72, align 8
  %.not48 = icmp eq ptr %73, null
  br i1 %.not48, label %84, label %74

74:                                               ; preds = %19
  %75 = getelementptr inbounds nuw i8, ptr %3, i64 196
  %76 = load i32, ptr %75, align 4
  %77 = zext i32 %76 to i64
  %78 = tail call ptr @slurm_xcalloc(i64 noundef %77, i64 noundef 128, i1 noundef zeroext true, i1 noundef zeroext false, ptr noundef nonnull @.str.1, i32 noundef 245, ptr noundef nonnull @__func__._slurm_cred_to_step_rec) #9
  %79 = getelementptr inbounds nuw i8, ptr %1, i64 160
  store ptr %78, ptr %79, align 8
  %80 = load ptr, ptr %72, align 8
  %81 = load i32, ptr %75, align 4
  %82 = zext i32 %81 to i64
  %83 = shl nuw nsw i64 %82, 7
  tail call void @llvm.memcpy.p0.p0.i64(ptr align 8 %78, ptr align 8 %80, i64 %83, i1 false)
  br label %84

84:                                               ; preds = %74, %19
  %85 = getelementptr inbounds nuw i8, ptr %3, i64 104
  %86 = load ptr, ptr %85, align 8
  %87 = tail call ptr @xstrdup(ptr noundef %86) #9
  store ptr %87, ptr %1, align 8
  %88 = getelementptr inbounds nuw i8, ptr %3, i64 160
  %89 = load ptr, ptr %88, align 8
  %90 = tail call ptr @xstrdup(ptr noundef %89) #9
  %91 = getelementptr inbounds nuw i8, ptr %1, i64 168
  store ptr %90, ptr %91, align 8
  %92 = getelementptr inbounds nuw i8, ptr %3, i64 344
  %93 = load ptr, ptr %92, align 8
  %.not49 = icmp eq ptr %93, null
  br i1 %.not49, label %96, label %94

94:                                               ; preds = %84
  %95 = getelementptr inbounds nuw i8, ptr %1, i64 368
  tail call void @switch_g_duplicate_stepinfo(ptr noundef nonnull %93, ptr noundef nonnull %95) #9
  br label %96

96:                                               ; preds = %94, %84
  tail call void @slurm_cred_unlock_args(ptr noundef %0) #9
  ret void
}